target datalayout = "e-m:e-p270:32:32-p271:32:32-p272:64:64-i64:64-i128:128-f80:128-n8:16:32:64-S128"
target triple = "x86_64-pc-linux-gnu"

%struct.Agobj_s = type { %struct.Agtag_s, ptr }
%struct.Agtag_s = type { i32, i64 }
%struct.Agrec_s = type { ptr, ptr }
%struct.boxf = type { %struct.pointf_s, %struct.pointf_s }
%struct.pointf_s = type { double, double }
%struct.Agnodeinfo_t = type { %struct.Agrec_s, ptr, ptr, %struct.pointf_s, double, double, %struct.boxf, double, double, double, double, double, ptr, ptr, ptr, i8, i8, i8, i8, i32, i32, i32, ptr, double, i8, i8, ptr, ptr, i8, i64, i8, i8, i8, ptr, ptr, %struct.elist, %struct.elist, %struct.elist, %struct.elist, %struct.elist, ptr, i32, ptr, i32, i32, double, %struct.elist, %struct.elist, %struct.elist, %struct.elist, ptr, i32, i32, i32, [1 x double] }
%struct.elist = type { ptr, i64 }
%struct.Agedge_s = type { %struct.Agobj_s, %struct.dtlink_s_, %struct.dtlink_s_, ptr }
%struct.dtlink_s_ = type { ptr, %union.anon.0 }
%union.anon.0 = type { ptr }
%struct.info_t = type { %struct.Agrec_s, i32, i32, i32, ptr }

; Function Attrs: nounwind uwtable
define internal i32 @getComp(ptr noundef %0, ptr noundef %1, ptr noundef %2, ptr noundef %3) #0 {
  %5 = alloca ptr, align 8
  %6 = alloca ptr, align 8
  %7 = alloca ptr, align 8
  %8 = alloca ptr, align 8
  %9 = alloca i32, align 4
  %10 = alloca ptr, align 8
  store ptr %0, ptr %5, align 8, !tbaa !3
  store ptr %1, ptr %6, align 8, !tbaa !41
  store ptr %2, ptr %7, align 8, !tbaa !3
  store ptr %3, ptr %8, align 8, !tbaa !71
  call void @llvm.lifetime.start.p0(i64 4, ptr %9) #15
  store i32 0, ptr %9, align 4, !tbaa !33
  call void @llvm.lifetime.start.p0(i64 8, ptr %10) #15
  %11 = load ptr, ptr %6, align 8, !tbaa !41
  %12 = getelementptr inbounds nuw %struct.Agobj_s, ptr %11, i32 0, i32 1
  %13 = load ptr, ptr %12, align 8, !tbaa !8
  %14 = getelementptr inbounds nuw %struct.info_t, ptr %13, i32 0, i32 1
  store i32 1, ptr %14, align 8, !tbaa !73
  %15 = load ptr, ptr %6, align 8, !tbaa !41
  %16 = getelementptr inbounds nuw %struct.Agobj_s, ptr %15, i32 0, i32 1
  %17 = load ptr, ptr %16, align 8, !tbaa !8
  %18 = getelementptr inbounds nuw %struct.info_t, ptr %17, i32 0, i32 4
  %19 = load ptr, ptr %18, align 8, !tbaa !59
  %20 = getelementptr inbounds nuw %struct.Agobj_s, ptr %19, i32 0, i32 1
  %21 = load ptr, ptr %20, align 8, !tbaa !8
  %22 = getelementptr inbounds nuw %struct.Agnodeinfo_t, ptr %21, i32 0, i32 44
  %23 = load i32, ptr %22, align 4, !tbaa !55
  %24 = load ptr, ptr %8, align 8, !tbaa !71
  %25 = load ptr, ptr %7, align 8, !tbaa !3
  %26 = call i32 @agnnodes(ptr noundef %25)
  %27 = sext i32 %26 to i64
  %28 = getelementptr inbounds i32, ptr %24, i64 %27
  store i32 %23, ptr %28, align 4, !tbaa !33
  %29 = load ptr, ptr %7, align 8, !tbaa !3
  %30 = load ptr, ptr %6, align 8, !tbaa !41
  %31 = call ptr @agsubnode(ptr noundef %29, ptr noundef %30, i32 noundef 1)
  %32 = load ptr, ptr %5, align 8, !tbaa !3
  %33 = load ptr, ptr %6, align 8, !tbaa !41
  %34 = call ptr @agfstout(ptr noundef %32, ptr noundef %33)
  store ptr %34, ptr %10, align 8, !tbaa !49
  br label %35

35:                                               ; preds = %129, %4
  %36 = load ptr, ptr %10, align 8, !tbaa !49
  %37 = icmp ne ptr %36, null
  br i1 %37, label %38, label %133

38:                                               ; preds = %35
  %39 = load ptr, ptr %10, align 8, !tbaa !49
  %40 = getelementptr inbounds nuw %struct.Agobj_s, ptr %39, i32 0, i32 0
  %41 = load i32, ptr %40, align 8
  %42 = and i32 %41, 3
  %43 = icmp eq i32 %42, 2
  br i1 %43, label %44, label %46

44:                                               ; preds = %38
  %45 = load ptr, ptr %10, align 8, !tbaa !49
  br label %49

46:                                               ; preds = %38
  %47 = load ptr, ptr %10, align 8, !tbaa !49
  %48 = getelementptr inbounds %struct.Agedge_s, ptr %47, i64 -1
  br label %49

49:                                               ; preds = %46, %44
  %50 = phi ptr [ %45, %44 ], [ %48, %46 ]
  %51 = getelementptr inbounds nuw %struct.Agedge_s, ptr %50, i32 0, i32 3
  %52 = load ptr, ptr %51, align 8, !tbaa !51
  %53 = getelementptr inbounds nuw %struct.Agobj_s, ptr %52, i32 0, i32 1
  %54 = load ptr, ptr %53, align 8, !tbaa !8
  %55 = getelementptr inbounds nuw %struct.info_t, ptr %54, i32 0, i32 4
  %56 = load ptr, ptr %55, align 8, !tbaa !59
  %57 = getelementptr inbounds nuw %struct.Agobj_s, ptr %56, i32 0, i32 1
  %58 = load ptr, ptr %57, align 8, !tbaa !8
  %59 = getelementptr inbounds nuw %struct.Agnodeinfo_t, ptr %58, i32 0, i32 44
  %60 = load i32, ptr %59, align 4, !tbaa !55
  %61 = load ptr, ptr %10, align 8, !tbaa !49
  %62 = getelementptr inbounds nuw %struct.Agobj_s, ptr %61, i32 0, i32 0
  %63 = load i32, ptr %62, align 8
  %64 = and i32 %63, 3
  %65 = icmp eq i32 %64, 3
  br i1 %65, label %66, label %68

66:                                               ; preds = %49
  %67 = load ptr, ptr %10, align 8, !tbaa !49
  br label %71

68:                                               ; preds = %49
  %69 = load ptr, ptr %10, align 8, !tbaa !49
  %70 = getelementptr inbounds %struct.Agedge_s, ptr %69, i64 1
  br label %71

71:                                               ; preds = %68, %66
  %72 = phi ptr [ %67, %66 ], [ %70, %68 ]
  %73 = getelementptr inbounds nuw %struct.Agedge_s, ptr %72, i32 0, i32 3
  %74 = load ptr, ptr %73, align 8, !tbaa !51
  %75 = getelementptr inbounds nuw %struct.Agobj_s, ptr %74, i32 0, i32 1
  %76 = load ptr, ptr %75, align 8, !tbaa !8
  %77 = getelementptr inbounds nuw %struct.info_t, ptr %76, i32 0, i32 4
  %78 = load ptr, ptr %77, align 8, !tbaa !59
  %79 = getelementptr inbounds nuw %struct.Agobj_s, ptr %78, i32 0, i32 1
  %80 = load ptr, ptr %79, align 8, !tbaa !8
  %81 = getelementptr inbounds nuw %struct.Agnodeinfo_t, ptr %80, i32 0, i32 44
  %82 = load i32, ptr %81, align 4, !tbaa !55
  %83 = icmp sgt i32 %60, %82
  br i1 %83, label %84, label %87

84:                                               ; preds = %71
  %85 = load i32, ptr %9, align 4, !tbaa !33
  %86 = add nsw i32 %85, 1
  store i32 %86, ptr %9, align 4, !tbaa !33
  br label %87

87:                                               ; preds = %84, %71
  %88 = load ptr, ptr %10, align 8, !tbaa !49
  %89 = getelementptr inbounds nuw %struct.Agobj_s, ptr %88, i32 0, i32 0
  %90 = load i32, ptr %89, align 8
  %91 = and i32 %90, 3
  %92 = icmp eq i32 %91, 2
  br i1 %92, label %93, label %95

93:                                               ; preds = %87
  %94 = load ptr, ptr %10, align 8, !tbaa !49
  br label %98

95:                                               ; preds = %87
  %96 = load ptr, ptr %10, align 8, !tbaa !49
  %97 = getelementptr inbounds %struct.Agedge_s, ptr %96, i64 -1
  br label %98

98:                                               ; preds = %95, %93
  %99 = phi ptr [ %94, %93 ], [ %97, %95 ]
  %100 = getelementptr inbounds nuw %struct.Agedge_s, ptr %99, i32 0, i32 3
  %101 = load ptr, ptr %100, align 8, !tbaa !51
  %102 = getelementptr inbounds nuw %struct.Agobj_s, ptr %101, i32 0, i32 1
  %103 = load ptr, ptr %102, align 8, !tbaa !8
  %104 = getelementptr inbounds nuw %struct.info_t, ptr %103, i32 0, i32 1
  %105 = load i32, ptr %104, align 8, !tbaa !73
  %106 = icmp ne i32 %105, 0
  br i1 %106, label %128, label %107

107:                                              ; preds = %98
  %108 = load ptr, ptr %5, align 8, !tbaa !3
  %109 = load ptr, ptr %10, align 8, !tbaa !49
  %110 = getelementptr inbounds nuw %struct.Agobj_s, ptr %109, i32 0, i32 0
  %111 = load i32, ptr %110, align 8
  %112 = and i32 %111, 3
  %113 = icmp eq i32 %112, 2
  br i1 %113, label %114, label %116

114:                                              ; preds = %107
  %115 = load ptr, ptr %10, align 8, !tbaa !49
  br label %119

116:                                              ; preds = %107
  %117 = load ptr, ptr %10, align 8, !tbaa !49
  %118 = getelementptr inbounds %struct.Agedge_s, ptr %117, i64 -1
  br label %119

119:                                              ; preds = %116, %114
  %120 = phi ptr [ %115, %114 ], [ %118, %116 ]
  %121 = getelementptr inbounds nuw %struct.Agedge_s, ptr %120, i32 0, i32 3
  %122 = load ptr, ptr %121, align 8, !tbaa !51
  %123 = load ptr, ptr %7, align 8, !tbaa !3
  %124 = load ptr, ptr %8, align 8, !tbaa !71
  %125 = call i32 @getComp(ptr noundef %108, ptr noundef %122, ptr noundef %123, ptr noundef %124)
  %126 = load i32, ptr %9, align 4, !tbaa !33
  %127 = add nsw i32 %126, %125
  store i32 %127, ptr %9, align 4, !tbaa !33
  br label %128

128:                                              ; preds = %119, %98
  br label %129

129:                                              ; preds = %128
  %130 = load ptr, ptr %5, align 8, !tbaa !3
  %131 = load ptr, ptr %10, align 8, !tbaa !49
  %132 = call ptr @agnxtout(ptr noundef %130, ptr noundef %131)
  store ptr %132, ptr %10, align 8, !tbaa !49
  br label %35, !llvm.loop !158

133:                                              ; preds = %35
  %134 = load ptr, ptr %5, align 8, !tbaa !3
  %135 = load ptr, ptr %6, align 8, !tbaa !41
  %136 = call ptr @agfstin(ptr noundef %134, ptr noundef %135)
  store ptr %136, ptr %10, align 8, !tbaa !49
  br label %137

137:                                              ; preds = %231, %133
  %138 = load ptr, ptr %10, align 8, !tbaa !49
  %139 = icmp ne ptr %138, null
  br i1 %139, label %140, label %235

140:                                              ; preds = %137
  %141 = load ptr, ptr %10, align 8, !tbaa !49
  %142 = getelementptr inbounds nuw %struct.Agobj_s, ptr %141, i32 0, i32 0
  %143 = load i32, ptr %142, align 8
  %144 = and i32 %143, 3
  %145 = icmp eq i32 %144, 2
  br i1 %145, label %146, label %148

146:                                              ; preds = %140
  %147 = load ptr, ptr %10, align 8, !tbaa !49
  br label %151

148:                                              ; preds = %140
  %149 = load ptr, ptr %10, align 8, !tbaa !49
  %150 = getelementptr inbounds %struct.Agedge_s, ptr %149, i64 -1
  br label %151

151:                                              ; preds = %148, %146
  %152 = phi ptr [ %147, %146 ], [ %150, %148 ]
  %153 = getelementptr inbounds nuw %struct.Agedge_s, ptr %152, i32 0, i32 3
  %154 = load ptr, ptr %153, align 8, !tbaa !51
  %155 = getelementptr inbounds nuw %struct.Agobj_s, ptr %154, i32 0, i32 1
  %156 = load ptr, ptr %155, align 8, !tbaa !8
  %157 = getelementptr inbounds nuw %struct.info_t, ptr %156, i32 0, i32 4
  %158 = load ptr, ptr %157, align 8, !tbaa !59
  %159 = getelementptr inbounds nuw %struct.Agobj_s, ptr %158, i32 0, i32 1
  %160 = load ptr, ptr %159, align 8, !tbaa !8
  %161 = getelementptr inbounds nuw %struct.Agnodeinfo_t, ptr %160, i32 0, i32 44
  %162 = load i32, ptr %161, align 4, !tbaa !55
  %163 = load ptr, ptr %10, align 8, !tbaa !49
  %164 = getelementptr inbounds nuw %struct.Agobj_s, ptr %163, i32 0, i32 0
  %165 = load i32, ptr %164, align 8
  %166 = and i32 %165, 3
  %167 = icmp eq i32 %166, 3
  br i1 %167, label %168, label %170

168:                                              ; preds = %151
  %169 = load ptr, ptr %10, align 8, !tbaa !49
  br label %173

170:                                              ; preds = %151
  %171 = load ptr, ptr %10, align 8, !tbaa !49
  %172 = getelementptr inbounds %struct.Agedge_s, ptr %171, i64 1
  br label %173

173:                                              ; preds = %170, %168
  %174 = phi ptr [ %169, %168 ], [ %172, %170 ]
  %175 = getelementptr inbounds nuw %struct.Agedge_s, ptr %174, i32 0, i32 3
  %176 = load ptr, ptr %175, align 8, !tbaa !51
  %177 = getelementptr inbounds nuw %struct.Agobj_s, ptr %176, i32 0, i32 1
  %178 = load ptr, ptr %177, align 8, !tbaa !8
  %179 = getelementptr inbounds nuw %struct.info_t, ptr %178, i32 0, i32 4
  %180 = load ptr, ptr %179, align 8, !tbaa !59
  %181 = getelementptr inbounds nuw %struct.Agobj_s, ptr %180, i32 0, i32 1
  %182 = load ptr, ptr %181, align 8, !tbaa !8
  %183 = getelementptr inbounds nuw %struct.Agnodeinfo_t, ptr %182, i32 0, i32 44
  %184 = load i32, ptr %183, align 4, !tbaa !55
  %185 = icmp sgt i32 %162, %184
  br i1 %185, label %186, label %189

186:                                              ; preds = %173
  %187 = load i32, ptr %9, align 4, !tbaa !33
  %188 = add nsw i32 %187, 1
  store i32 %188, ptr %9, align 4, !tbaa !33
  br label %189

189:                                              ; preds = %186, %173
  %190 = load ptr, ptr %10, align 8, !tbaa !49
  %191 = getelementptr inbounds nuw %struct.Agobj_s, ptr %190, i32 0, i32 0
  %192 = load i32, ptr %191, align 8
  %193 = and i32 %192, 3
  %194 = icmp eq i32 %193, 3
  br i1 %194, label %195, label %197

195:                                              ; preds = %189
  %196 = load ptr, ptr %10, align 8, !tbaa !49
  br label %200

197:                                              ; preds = %189
  %198 = load ptr, ptr %10, align 8, !tbaa !49
  %199 = getelementptr inbounds %struct.Agedge_s, ptr %198, i64 1
  br label %200

200:                                              ; preds = %197, %195
  %201 = phi ptr [ %196, %195 ], [ %199, %197 ]
  %202 = getelementptr inbounds nuw %struct.Agedge_s, ptr %201, i32 0, i32 3
  %203 = load ptr, ptr %202, align 8, !tbaa !51
  %204 = getelementptr inbounds nuw %struct.Agobj_s, ptr %203, i32 0, i32 1
  %205 = load ptr, ptr %204, align 8, !tbaa !8
  %206 = getelementptr inbounds nuw %struct.info_t, ptr %205, i32 0, i32 1
  %207 = load i32, ptr %206, align 8, !tbaa !73
  %208 = icmp ne i32 %207, 0
  br i1 %208, label %230, label %209

209:                                              ; preds = %200
  %210 = load ptr, ptr %5, align 8, !tbaa !3
  %211 = load ptr, ptr %10, align 8, !tbaa !49
  %212 = getelementptr inbounds nuw %struct.Agobj_s, ptr %211, i32 0, i32 0
  %213 = load i32, ptr %212, align 8
  %214 = and i32 %213, 3
  %215 = icmp eq i32 %214, 3
  br i1 %215, label %216, label %218

216:                                              ; preds = %209
  %217 = load ptr, ptr %10, align 8, !tbaa !49
  br label %221

218:                                              ; preds = %209
  %219 = load ptr, ptr %10, align 8, !tbaa !49
  %220 = getelementptr inbounds %struct.Agedge_s, ptr %219, i64 1
  br label %221

221:                                              ; preds = %218, %216
  %222 = phi ptr [ %217, %216 ], [ %220, %218 ]
  %223 = getelementptr inbounds nuw %struct.Agedge_s, ptr %222, i32 0, i32 3
  %224 = load ptr, ptr %223, align 8, !tbaa !51
  %225 = load ptr, ptr %7, align 8, !tbaa !3
  %226 = load ptr, ptr %8, align 8, !tbaa !71
  %227 = call i32 @getComp(ptr noundef %210, ptr noundef %224, ptr noundef %225, ptr noundef %226)
  %228 = load i32, ptr %9, align 4, !tbaa !33
  %229 = add nsw i32 %228, %227
  store i32 %229, ptr %9, align 4, !tbaa !33
  br label %230

230:                                              ; preds = %221, %200
  br label %231

231:                                              ; preds = %230
  %232 = load ptr, ptr %5, align 8, !tbaa !3
  %233 = load ptr, ptr %10, align 8, !tbaa !49
  %234 = call ptr @agnxtin(ptr noundef %232, ptr noundef %233)
  store ptr %234, ptr %10, align 8, !tbaa !49
  br label %137, !llvm.loop !159

235:                                              ; preds = %137
  %236 = load i32, ptr %9, align 4, !tbaa !33
  call void @llvm.lifetime.end.p0(i64 8, ptr %10) #15
  call void @llvm.lifetime.end.p0(i64 4, ptr %9) #15
  ret i32 %236
}