; Function Attrs: nounwind uwtable
define internal fastcc i32 @getComp(ptr noundef nonnull %0, ptr noundef %1, ptr noundef %2, ptr noundef %3) unnamed_addr #0 {
  %5 = getelementptr inbounds nuw i8, ptr %1, i64 16
  %6 = load ptr, ptr %5, align 8, !tbaa !3
  %7 = getelementptr inbounds nuw i8, ptr %6, i64 16
  store i32 1, ptr %7, align 8, !tbaa !63
  %8 = getelementptr inbounds nuw i8, ptr %6, i64 32
  %9 = load ptr, ptr %8, align 8, !tbaa !59
  %10 = getelementptr inbounds nuw i8, ptr %9, i64 16
  %11 = load ptr, ptr %10, align 8, !tbaa !3
  %12 = getelementptr inbounds nuw i8, ptr %11, i64 364
  %13 = load i32, ptr %12, align 4, !tbaa !55
  %14 = tail call i32 @agnnodes(ptr noundef %2) #23
  %15 = sext i32 %14 to i64
  %16 = getelementptr inbounds i32, ptr %3, i64 %15
  store i32 %13, ptr %16, align 4, !tbaa !67
  %17 = tail call ptr @agsubnode(ptr noundef %2, ptr noundef %1, i32 noundef 1) #23
  %18 = tail call ptr @agfstout(ptr noundef nonnull %0, ptr noundef %1) #23
  %.not59 = icmp eq ptr %18, null
  br i1 %.not59, label %._crit_edge, label %.lr.ph

.lr.ph:                                           ; preds = %4, %52
  %.061 = phi ptr [ %53, %52 ], [ %18, %4 ]
  %.05060 = phi i32 [ %.2, %52 ], [ 0, %4 ]
  %19 = load i32, ptr %.061, align 8
  %20 = and i32 %19, 3
  %21 = icmp eq i32 %20, 2
  %.idx57 = select i1 %21, i64 0, i64 -64
  %22 = getelementptr inbounds i8, ptr %.061, i64 %.idx57
  %23 = getelementptr inbounds nuw i8, ptr %22, i64 56
  %24 = load ptr, ptr %23, align 8, !tbaa !51
  %25 = getelementptr inbounds nuw i8, ptr %24, i64 16
  %26 = load ptr, ptr %25, align 8, !tbaa !3
  %27 = getelementptr inbounds nuw i8, ptr %26, i64 32
  %28 = load ptr, ptr %27, align 8, !tbaa !59
  %29 = getelementptr inbounds nuw i8, ptr %28, i64 16
  %30 = load ptr, ptr %29, align 8, !tbaa !3
  %31 = getelementptr inbounds nuw i8, ptr %30, i64 364
  %32 = load i32, ptr %31, align 4, !tbaa !55
  %33 = icmp eq i32 %20, 3
  %.idx54 = select i1 %33, i64 0, i64 64
  %34 = getelementptr inbounds nuw i8, ptr %.061, i64 %.idx54
  %35 = getelementptr inbounds nuw i8, ptr %34, i64 56
  %36 = load ptr, ptr %35, align 8, !tbaa !51
  %37 = getelementptr inbounds nuw i8, ptr %36, i64 16
  %38 = load ptr, ptr %37, align 8, !tbaa !3
  %39 = getelementptr inbounds nuw i8, ptr %38, i64 32
  %40 = load ptr, ptr %39, align 8, !tbaa !59
  %41 = getelementptr inbounds nuw i8, ptr %40, i64 16
  %42 = load ptr, ptr %41, align 8, !tbaa !3
  %43 = getelementptr inbounds nuw i8, ptr %42, i64 364
  %44 = load i32, ptr %43, align 4, !tbaa !55
  %45 = icmp sgt i32 %32, %44
  %46 = zext i1 %45 to i32
  %spec.select = add nsw i32 %.05060, %46
  %47 = getelementptr inbounds nuw i8, ptr %26, i64 16
  %48 = load i32, ptr %47, align 8, !tbaa !63
  %.not55 = icmp eq i32 %48, 0
  br i1 %.not55, label %49, label %52

49:                                               ; preds = %.lr.ph
  %50 = tail call fastcc i32 @getComp(ptr noundef %0, ptr noundef nonnull %24, ptr noundef %2, ptr noundef %3)
  %51 = add nsw i32 %50, %spec.select
  br label %52

52:                                               ; preds = %.lr.ph, %49
  %.2 = phi i32 [ %spec.select, %.lr.ph ], [ %51, %49 ]
  %53 = tail call ptr @agnxtout(ptr noundef nonnull %0, ptr noundef nonnull %.061) #23
  %.not = icmp eq ptr %53, null
  br i1 %.not, label %._crit_edge, label %.lr.ph, !llvm.loop !203

._crit_edge:                                      ; preds = %52, %4
  %.050.lcssa = phi i32 [ 0, %4 ], [ %.2, %52 ]
  %54 = tail call ptr @agfstin(ptr noundef nonnull %0, ptr noundef %1) #23
  %.not5262 = icmp eq ptr %54, null
  br i1 %.not5262, label %._crit_edge67, label %.lr.ph66

.lr.ph66:                                         ; preds = %._crit_edge, %88
  %.164 = phi ptr [ %89, %88 ], [ %54, %._crit_edge ]
  %.363 = phi i32 [ %.5, %88 ], [ %.050.lcssa, %._crit_edge ]
  %55 = load i32, ptr %.164, align 8
  %56 = and i32 %55, 3
  %57 = icmp eq i32 %56, 2
  %.idx = select i1 %57, i64 0, i64 -64
  %58 = getelementptr inbounds i8, ptr %.164, i64 %.idx
  %59 = getelementptr inbounds nuw i8, ptr %58, i64 56
  %60 = load ptr, ptr %59, align 8, !tbaa !51
  %61 = getelementptr inbounds nuw i8, ptr %60, i64 16
  %62 = load ptr, ptr %61, align 8, !tbaa !3
  %63 = getelementptr inbounds nuw i8, ptr %62, i64 32
  %64 = load ptr, ptr %63, align 8, !tbaa !59
  %65 = getelementptr inbounds nuw i8, ptr %64, i64 16
  %66 = load ptr, ptr %65, align 8, !tbaa !3
  %67 = getelementptr inbounds nuw i8, ptr %66, i64 364
  %68 = load i32, ptr %67, align 4, !tbaa !55
  %69 = icmp eq i32 %56, 3
  %.idx58 = select i1 %69, i64 0, i64 64
  %70 = getelementptr inbounds nuw i8, ptr %.164, i64 %.idx58
  %71 = getelementptr inbounds nuw i8, ptr %70, i64 56
  %72 = load ptr, ptr %71, align 8, !tbaa !51
  %73 = getelementptr inbounds nuw i8, ptr %72, i64 16
  %74 = load ptr, ptr %73, align 8, !tbaa !3
  %75 = getelementptr inbounds nuw i8, ptr %74, i64 32
  %76 = load ptr, ptr %75, align 8, !tbaa !59
  %77 = getelementptr inbounds nuw i8, ptr %76, i64 16
  %78 = load ptr, ptr %77, align 8, !tbaa !3
  %79 = getelementptr inbounds nuw i8, ptr %78, i64 364
  %80 = load i32, ptr %79, align 4, !tbaa !55
  %81 = icmp sgt i32 %68, %80
  %82 = zext i1 %81 to i32
  %spec.select56 = add nsw i32 %.363, %82
  %83 = getelementptr inbounds nuw i8, ptr %74, i64 16
  %84 = load i32, ptr %83, align 8, !tbaa !63
  %.not53 = icmp eq i32 %84, 0
  br i1 %.not53, label %85, label %88

85:                                               ; preds = %.lr.ph66
  %86 = tail call fastcc i32 @getComp(ptr noundef %0, ptr noundef nonnull %72, ptr noundef %2, ptr noundef %3)
  %87 = add nsw i32 %86, %spec.select56
  br label %88

88:                                               ; preds = %.lr.ph66, %85
  %.5 = phi i32 [ %spec.select56, %.lr.ph66 ], [ %87, %85 ]
  %89 = tail call ptr @agnxtin(ptr noundef nonnull %0, ptr noundef nonnull %.164) #23
  %.not52 = icmp eq ptr %89, null
  br i1 %.not52, label %._crit_edge67, label %.lr.ph66, !llvm.loop !204

._crit_edge67:                                    ; preds = %88, %._crit_edge
  %.3.lcssa = phi i32 [ %.050.lcssa, %._crit_edge ], [ %.5, %88 ]
  ret i32 %.3.lcssa
}